target datalayout = "e-m:e-p270:32:32-p271:32:32-p272:64:64-i64:64-i128:128-f80:128-n8:16:32:64-S128"
target triple = "x86_64-unknown-linux-gnu"

%"class.std::function.17" = type { %"class.std::_Function_base", ptr }
%"class.std::_Function_base" = type { %"union.std::_Any_data", ptr }
%"union.std::_Any_data" = type { %"union.std::_Nocopy_types" }
%"union.std::_Nocopy_types" = type { { i64, i64 } }
%"class.hermes::vm::GCBase" = type <{ ptr, i32, [4 x i8], i64, %"class.hermes::vm::GCExecTrace", [7 x i8], ptr, ptr, %"class.std::shared_ptr", i32, [4 x i8], %"class.std::function", %"class.std::vector", i8, i8, i8, i8, [4 x i8], %"class.std::chrono::time_point", %"class.std::chrono::duration.0", i64, i64, %"struct.hermes::vm::GCBase::CumulativeHeapStats", %"class.std::__cxx11::basic_string", %"class.std::deque", ptr, %"class.std::recursive_mutex", %"class.hermes::vm::GCBase::IDTracker", [3 x i64], %"class.std::function.17", i32, i8, [3 x i8] }>
%"class.hermes::vm::GCExecTrace" = type { i8 }
%"class.std::shared_ptr" = type { %"class.std::__shared_ptr" }
%"class.std::__shared_ptr" = type { ptr, %"class.std::__shared_count" }
%"class.std::__shared_count" = type { ptr }
%"class.std::function" = type { %"class.std::_Function_base", ptr }
%"class.std::vector" = type { %"struct.std::_Vector_base" }
%"struct.std::_Vector_base" = type { %"struct.std::_Vector_base<hermes::vm::GCAnalyticsEvent, std::allocator<hermes::vm::GCAnalyticsEvent>>::_Vector_impl" }
%"struct.std::_Vector_base<hermes::vm::GCAnalyticsEvent, std::allocator<hermes::vm::GCAnalyticsEvent>>::_Vector_impl" = type { %"struct.std::_Vector_base<hermes::vm::GCAnalyticsEvent, std::allocator<hermes::vm::GCAnalyticsEvent>>::_Vector_impl_data" }
%"struct.std::_Vector_base<hermes::vm::GCAnalyticsEvent, std::allocator<hermes::vm::GCAnalyticsEvent>>::_Vector_impl_data" = type { ptr, ptr, ptr }
%"class.std::chrono::time_point" = type { %"class.std::chrono::duration" }
%"class.std::chrono::duration" = type { i64 }
%"class.std::chrono::duration.0" = type { i64 }
%"struct.hermes::vm::GCBase::CumulativeHeapStats" = type { i32, %"class.hermes::StatsAccumulator", %"class.hermes::StatsAccumulator", i32, %"class.hermes::StatsAccumulator.1", %"class.hermes::StatsAccumulator.1" }
%"class.hermes::StatsAccumulator" = type { i32, double, double, double, double }
%"class.hermes::StatsAccumulator.1" = type { i32, i64, i32, i32, double }
%"class.std::__cxx11::basic_string" = type { %"struct.std::__cxx11::basic_string<char>::_Alloc_hider", i64, %union.anon }
%"struct.std::__cxx11::basic_string<char>::_Alloc_hider" = type { ptr }
%union.anon = type { i64, [8 x i8] }
%"class.std::deque" = type { %"class.std::_Deque_base" }
%"class.std::_Deque_base" = type { %"struct.std::_Deque_base<hermes::vm::WeakRefSlot, std::allocator<hermes::vm::WeakRefSlot>>::_Deque_impl" }
%"struct.std::_Deque_base<hermes::vm::WeakRefSlot, std::allocator<hermes::vm::WeakRefSlot>>::_Deque_impl" = type { %"struct.std::_Deque_base<hermes::vm::WeakRefSlot, std::allocator<hermes::vm::WeakRefSlot>>::_Deque_impl_data" }
%"struct.std::_Deque_base<hermes::vm::WeakRefSlot, std::allocator<hermes::vm::WeakRefSlot>>::_Deque_impl_data" = type { ptr, i64, %"struct.std::_Deque_iterator", %"struct.std::_Deque_iterator" }
%"struct.std::_Deque_iterator" = type { ptr, ptr, ptr, ptr }
%"class.std::recursive_mutex" = type { %"class.std::__recursive_mutex_base" }
%"class.std::__recursive_mutex_base" = type { %union.pthread_mutex_t }
%union.pthread_mutex_t = type { %struct.__pthread_mutex_s }
%struct.__pthread_mutex_s = type { i32, i32, i32, i32, i32, i16, i16, %struct.__pthread_internal_list }
%struct.__pthread_internal_list = type { ptr, ptr }
%"class.hermes::vm::GCBase::IDTracker" = type { %"class.std::recursive_mutex", i32, [4 x i8], %"class.llvh::DenseMap", %"class.llvh::DenseMap", %"class.llvh::DenseMap.8", %"class.llvh::DenseMap.11", %"class.llvh::DenseMap", %"class.llvh::DenseMap.14" }
%"class.llvh::DenseMap.8" = type <{ ptr, i32, i32, i32, [4 x i8] }>
%"class.llvh::DenseMap.11" = type <{ ptr, i32, i32, i32, [4 x i8] }>
%"class.llvh::DenseMap" = type <{ ptr, i32, i32, i32, [4 x i8] }>
%"class.llvh::DenseMap.14" = type <{ ptr, i32, i32, i32, [4 x i8] }>
%"class.__gnu_cxx::__normal_iterator" = type { ptr }
%"struct.hermes::vm::GCAnalyticsEvent" = type { %"class.std::__cxx11::basic_string", %"class.std::__cxx11::basic_string", %"class.std::__cxx11::basic_string", %"class.std::__cxx11::basic_string", %"class.std::chrono::duration.24", %"class.std::chrono::duration.24", %"struct.hermes::vm::BeforeAndAfter", %"struct.hermes::vm::BeforeAndAfter", %"struct.hermes::vm::BeforeAndAfter", double, %"class.std::vector.25" }
%"class.std::chrono::duration.24" = type { i64 }
%"struct.hermes::vm::BeforeAndAfter" = type { i64, i64 }
%"class.std::vector.25" = type { %"struct.std::_Vector_base.26" }
%"struct.std::_Vector_base.26" = type { %"struct.std::_Vector_base<std::__cxx11::basic_string<char>, std::allocator<std::__cxx11::basic_string<char>>>::_Vector_impl" }
%"struct.std::_Vector_base<std::__cxx11::basic_string<char>, std::allocator<std::__cxx11::basic_string<char>>>::_Vector_impl" = type { %"struct.std::_Vector_base<std::__cxx11::basic_string<char>, std::allocator<std::__cxx11::basic_string<char>>>::_Vector_impl_data" }
%"struct.std::_Vector_base<std::__cxx11::basic_string<char>, std::allocator<std::__cxx11::basic_string<char>>>::_Vector_impl_data" = type { ptr, ptr, ptr }

; Function Attrs: mustprogress nounwind uwtable
define linkonce_odr hidden void @_ZN9__gnu_cxx17__normal_iteratorIPN6hermes2vm16GCAnalyticsEventESt6vectorIS3_SaIS3_EEEC2ERKS4_(ptr noundef nonnull align 8 dereferenceable(8) %this, ptr noundef nonnull align 8 dereferenceable(8) %__i) unnamed_addr #0 comdat align 2 {
entry:
  %this.addr = alloca ptr, align 8
  %__i.addr = alloca ptr, align 8
  store ptr %this, ptr %this.addr, align 8
  store ptr %__i, ptr %__i.addr, align 8
  %this1 = load ptr, ptr %this.addr, align 8
  %_M_current = getelementptr inbounds %"class.__gnu_cxx::__normal_iterator", ptr %this1, i32 0, i32 0
  %0 = load ptr, ptr %__i.addr, align 8
  %1 = load ptr, ptr %0, align 8
  store ptr %1, ptr %_M_current, align 8
  ret void
}

; Function Attrs: mustprogress nounwind uwtable
define linkonce_odr hidden void @_ZNSt15__new_allocatorIN6hermes2vm16GCAnalyticsEventEE9constructIS2_JRKS2_EEEvPT_DpOT0_(ptr noundef nonnull align 1 dereferenceable(1) %this, ptr noundef %__p, ptr noundef nonnull align 8 dereferenceable(224) %__args) #0 comdat align 2 {
entry:
  %this.addr = alloca ptr, align 8
  %__p.addr = alloca ptr, align 8
  %__args.addr = alloca ptr, align 8
  store ptr %this, ptr %this.addr, align 8
  store ptr %__p, ptr %__p.addr, align 8
  store ptr %__args, ptr %__args.addr, align 8
  %0 = load ptr, ptr %__p.addr, align 8
  %1 = load ptr, ptr %__args.addr, align 8
  call void @_ZN6hermes2vm16GCAnalyticsEventC2ERKS1_(ptr noundef nonnull align 8 dereferenceable(224) %0, ptr noundef nonnull align 8 dereferenceable(224) %1)
  ret void
}

; Function Attrs: mustprogress nounwind uwtable
define linkonce_odr hidden ptr @_ZNSt6vectorIN6hermes2vm16GCAnalyticsEventESaIS2_EE3endEv(ptr noundef nonnull align 8 dereferenceable(24) %this) #0 comdat align 2 {
entry:
  %retval = alloca %"class.__gnu_cxx::__normal_iterator", align 8
  %this.addr = alloca ptr, align 8
  store ptr %this, ptr %this.addr, align 8
  %this1 = load ptr, ptr %this.addr, align 8
  %_M_impl = getelementptr inbounds %"struct.std::_Vector_base", ptr %this1, i32 0, i32 0
  %_M_finish = getelementptr inbounds %"struct.std::_Vector_base<hermes::vm::GCAnalyticsEvent, std::allocator<hermes::vm::GCAnalyticsEvent>>::_Vector_impl_data", ptr %_M_impl, i32 0, i32 1
  call void @_ZN9__gnu_cxx17__normal_iteratorIPN6hermes2vm16GCAnalyticsEventESt6vectorIS3_SaIS3_EEEC2ERKS4_(ptr noundef nonnull align 8 dereferenceable(8) %retval, ptr noundef nonnull align 8 dereferenceable(8) %_M_finish) #14
  %coerce.dive = getelementptr inbounds %"class.__gnu_cxx::__normal_iterator", ptr %retval, i32 0, i32 0
  %0 = load ptr, ptr %coerce.dive, align 8
  ret ptr %0
}

; Function Attrs: mustprogress nounwind uwtable
define linkonce_odr hidden void @_ZNSt16allocator_traitsISaIN6hermes2vm16GCAnalyticsEventEEE9constructIS2_JRKS2_EEEvRS3_PT_DpOT0_(ptr noundef nonnull align 1 dereferenceable(1) %__a, ptr noundef %__p, ptr noundef nonnull align 8 dereferenceable(224) %__args) #0 comdat align 2 {
entry:
  %__a.addr = alloca ptr, align 8
  %__p.addr = alloca ptr, align 8
  %__args.addr = alloca ptr, align 8
  store ptr %__a, ptr %__a.addr, align 8
  store ptr %__p, ptr %__p.addr, align 8
  store ptr %__args, ptr %__args.addr, align 8
  %0 = load ptr, ptr %__a.addr, align 8
  %1 = load ptr, ptr %__p.addr, align 8
  %2 = load ptr, ptr %__args.addr, align 8
  call void @_ZNSt15__new_allocatorIN6hermes2vm16GCAnalyticsEventEE9constructIS2_JRKS2_EEEvPT_DpOT0_(ptr noundef nonnull align 1 dereferenceable(1) %0, ptr noundef %1, ptr noundef nonnull align 8 dereferenceable(224) %2)
  ret void
}

; Function Attrs: mustprogress nounwind uwtable
define linkonce_odr noundef zeroext i1 @_ZNKSt14_Function_base8_M_emptyEv(ptr noundef nonnull align 8 dereferenceable(24) %this) #0 comdat align 2 {
entry:
  %this.addr = alloca ptr, align 8
  store ptr %this, ptr %this.addr, align 8
  %this1 = load ptr, ptr %this.addr, align 8
  %_M_manager = getelementptr inbounds %"class.std::_Function_base", ptr %this1, i32 0, i32 1
  %0 = load ptr, ptr %_M_manager, align 8
  %tobool = icmp ne ptr %0, null
  %lnot = xor i1 %tobool, true
  ret i1 %lnot
}

; Function Attrs: mustprogress nounwind uwtable
define linkonce_odr hidden void @_ZNSt6vectorIN6hermes2vm16GCAnalyticsEventESaIS2_EE9push_backERKS2_(ptr noundef nonnull align 8 dereferenceable(24) %this, ptr noundef nonnull align 8 dereferenceable(224) %__x) #0 comdat align 2 {
entry:
  %this.addr = alloca ptr, align 8
  %__x.addr = alloca ptr, align 8
  %agg.tmp = alloca %"class.__gnu_cxx::__normal_iterator", align 8
  store ptr %this, ptr %this.addr, align 8
  store ptr %__x, ptr %__x.addr, align 8
  %this1 = load ptr, ptr %this.addr, align 8
  %_M_impl = getelementptr inbounds %"struct.std::_Vector_base", ptr %this1, i32 0, i32 0
  %_M_finish = getelementptr inbounds %"struct.std::_Vector_base<hermes::vm::GCAnalyticsEvent, std::allocator<hermes::vm::GCAnalyticsEvent>>::_Vector_impl_data", ptr %_M_impl, i32 0, i32 1
  %0 = load ptr, ptr %_M_finish, align 8
  %_M_impl2 = getelementptr inbounds %"struct.std::_Vector_base", ptr %this1, i32 0, i32 0
  %_M_end_of_storage = getelementptr inbounds %"struct.std::_Vector_base<hermes::vm::GCAnalyticsEvent, std::allocator<hermes::vm::GCAnalyticsEvent>>::_Vector_impl_data", ptr %_M_impl2, i32 0, i32 2
  %1 = load ptr, ptr %_M_end_of_storage, align 8
  %cmp = icmp ne ptr %0, %1
  br i1 %cmp, label %if.then, label %if.else

if.then:                                          ; preds = %entry
  %_M_impl3 = getelementptr inbounds %"struct.std::_Vector_base", ptr %this1, i32 0, i32 0
  %_M_impl4 = getelementptr inbounds %"struct.std::_Vector_base", ptr %this1, i32 0, i32 0
  %_M_finish5 = getelementptr inbounds %"struct.std::_Vector_base<hermes::vm::GCAnalyticsEvent, std::allocator<hermes::vm::GCAnalyticsEvent>>::_Vector_impl_data", ptr %_M_impl4, i32 0, i32 1
  %2 = load ptr, ptr %_M_finish5, align 8
  %3 = load ptr, ptr %__x.addr, align 8
  call void @_ZNSt16allocator_traitsISaIN6hermes2vm16GCAnalyticsEventEEE9constructIS2_JRKS2_EEEvRS3_PT_DpOT0_(ptr noundef nonnull align 1 dereferenceable(1) %_M_impl3, ptr noundef %2, ptr noundef nonnull align 8 dereferenceable(224) %3)
  %_M_impl6 = getelementptr inbounds %"struct.std::_Vector_base", ptr %this1, i32 0, i32 0
  %_M_finish7 = getelementptr inbounds %"struct.std::_Vector_base<hermes::vm::GCAnalyticsEvent, std::allocator<hermes::vm::GCAnalyticsEvent>>::_Vector_impl_data", ptr %_M_impl6, i32 0, i32 1
  %4 = load ptr, ptr %_M_finish7, align 8
  %incdec.ptr = getelementptr inbounds %"struct.hermes::vm::GCAnalyticsEvent", ptr %4, i32 1
  store ptr %incdec.ptr, ptr %_M_finish7, align 8
  br label %if.end

if.else:                                          ; preds = %entry
  %call = call ptr @_ZNSt6vectorIN6hermes2vm16GCAnalyticsEventESaIS2_EE3endEv(ptr noundef nonnull align 8 dereferenceable(24) %this1) #14
  %coerce.dive = getelementptr inbounds %"class.__gnu_cxx::__normal_iterator", ptr %agg.tmp, i32 0, i32 0
  store ptr %call, ptr %coerce.dive, align 8
  %5 = load ptr, ptr %__x.addr, align 8
  %coerce.dive8 = getelementptr inbounds %"class.__gnu_cxx::__normal_iterator", ptr %agg.tmp, i32 0, i32 0
  %6 = load ptr, ptr %coerce.dive8, align 8
  call void @_ZNSt6vectorIN6hermes2vm16GCAnalyticsEventESaIS2_EE17_M_realloc_insertIJRKS2_EEEvN9__gnu_cxx17__normal_iteratorIPS2_S4_EEDpOT_(ptr noundef nonnull align 8 dereferenceable(24) %this1, ptr %6, ptr noundef nonnull align 8 dereferenceable(224) %5)
  br label %if.end

if.end:                                           ; preds = %if.else, %if.then
  ret void
}

; Function Attrs: mustprogress nounwind uwtable
define linkonce_odr hidden void @_ZNKSt8functionIFvRKN6hermes2vm16GCAnalyticsEventEEEclES4_(ptr noundef nonnull align 8 dereferenceable(32) %this, ptr noundef nonnull align 8 dereferenceable(224) %__args) #0 comdat align 2 {
entry:
  %this.addr = alloca ptr, align 8
  %__args.addr = alloca ptr, align 8
  store ptr %this, ptr %this.addr, align 8
  store ptr %__args, ptr %__args.addr, align 8
  %this1 = load ptr, ptr %this.addr, align 8
  %call = call noundef zeroext i1 @_ZNKSt14_Function_base8_M_emptyEv(ptr noundef nonnull align 8 dereferenceable(24) %this1)
  br i1 %call, label %if.then, label %if.end

if.then:                                          ; preds = %entry
  call void @_ZSt25__throw_bad_function_callv() #15
  unreachable

if.end:                                           ; preds = %entry
  %_M_invoker = getelementptr inbounds %"class.std::function", ptr %this1, i32 0, i32 1
  %0 = load ptr, ptr %_M_invoker, align 8
  %_M_functor = getelementptr inbounds %"class.std::_Function_base", ptr %this1, i32 0, i32 0
  %1 = load ptr, ptr %__args.addr, align 8
  call void %0(ptr noundef nonnull align 8 dereferenceable(16) %_M_functor, ptr noundef nonnull align 8 dereferenceable(224) %1)
  ret void
}

; Function Attrs: mustprogress nounwind uwtable
define linkonce_odr hidden noundef zeroext i1 @_ZNKSt8functionIFvRKN6hermes2vm16GCAnalyticsEventEEEcvbEv(ptr noundef nonnull align 8 dereferenceable(32) %this) #0 comdat align 2 {
entry:
  %this.addr = alloca ptr, align 8
  store ptr %this, ptr %this.addr, align 8
  %this1 = load ptr, ptr %this.addr, align 8
  %call = call noundef zeroext i1 @_ZNKSt14_Function_base8_M_emptyEv(ptr noundef nonnull align 8 dereferenceable(24) %this1)
  %lnot = xor i1 %call, true
  ret i1 %lnot
}

; Function Attrs: mustprogress nounwind uwtable
define hidden void @_ZN6hermes2vm6GCBase13recordGCStatsERKNS0_16GCAnalyticsEventEb(ptr noundef nonnull align 8 dereferenceable(741) %this, ptr noundef nonnull align 8 dereferenceable(224) %event, i1 noundef zeroext %onMutator) #0 align 2 {
entry:
  %this.addr = alloca ptr, align 8
  %event.addr = alloca ptr, align 8
  %onMutator.addr = alloca i8, align 1
  store ptr %this, ptr %this.addr, align 8
  store ptr %event, ptr %event.addr, align 8
  %frombool = zext i1 %onMutator to i8
  store i8 %frombool, ptr %onMutator.addr, align 1
  %this1 = load ptr, ptr %this.addr, align 8
  %analyticsCallback_ = getelementptr inbounds %"class.hermes::vm::GCBase", ptr %this1, i32 0, i32 11
  %call = call noundef zeroext i1 @_ZNKSt8functionIFvRKN6hermes2vm16GCAnalyticsEventEEEcvbEv(ptr noundef nonnull align 8 dereferenceable(32) %analyticsCallback_) #14
  br i1 %call, label %if.then, label %if.end

if.then:                                          ; preds = %entry
  %analyticsCallback_2 = getelementptr inbounds %"class.hermes::vm::GCBase", ptr %this1, i32 0, i32 11
  %0 = load ptr, ptr %event.addr, align 8
  call void @_ZNKSt8functionIFvRKN6hermes2vm16GCAnalyticsEventEEEclES4_(ptr noundef nonnull align 8 dereferenceable(32) %analyticsCallback_2, ptr noundef nonnull align 8 dereferenceable(224) %0)
  br label %if.end

if.end:                                           ; preds = %if.then, %entry
  %recordGcStats_ = getelementptr inbounds %"class.hermes::vm::GCBase", ptr %this1, i32 0, i32 13
  %1 = load i8, ptr %recordGcStats_, align 8
  %tobool = trunc i8 %1 to i1
  br i1 %tobool, label %if.then3, label %if.end4

if.then3:                                         ; preds = %if.end
  %analyticsEvents_ = getelementptr inbounds %"class.hermes::vm::GCBase", ptr %this1, i32 0, i32 12
  %2 = load ptr, ptr %event.addr, align 8
  call void @_ZNSt6vectorIN6hermes2vm16GCAnalyticsEventESaIS2_EE9push_backERKS2_(ptr noundef nonnull align 8 dereferenceable(24) %analyticsEvents_, ptr noundef nonnull align 8 dereferenceable(224) %2)
  br label %if.end4

if.end4:                                          ; preds = %if.then3, %if.end
  %3 = load ptr, ptr %event.addr, align 8
  %cumStats_ = getelementptr inbounds %"class.hermes::vm::GCBase", ptr %this1, i32 0, i32 22
  %4 = load i8, ptr %onMutator.addr, align 1
  %tobool5 = trunc i8 %4 to i1
  call void @_ZN6hermes2vm6GCBase13recordGCStatsERKNS0_16GCAnalyticsEventEPNS1_19CumulativeHeapStatsEb(ptr noundef nonnull align 8 dereferenceable(741) %this1, ptr noundef nonnull align 8 dereferenceable(224) %3, ptr noundef %cumStats_, i1 noundef zeroext %tobool5)
  ret void
}