; Function Attrs: mustprogress nounwind uwtable
define hidden void @_ZN6hermes2vm6GCBase13recordGCStatsERKNS0_16GCAnalyticsEventEb(ptr noundef nonnull align 8 dereferenceable(741) %this, ptr noundef nonnull align 8 dereferenceable(224) %event, i1 noundef zeroext %onMutator) local_unnamed_addr #0 align 2 {
entry:
  %_M_manager.i.i = getelementptr inbounds i8, ptr %this, i64 88
  %0 = load ptr, ptr %_M_manager.i.i, align 8
  %tobool.not.i.i.not = icmp eq ptr %0, null
  br i1 %tobool.not.i.i.not, label %if.end, label %_ZNKSt8functionIFvRKN6hermes2vm16GCAnalyticsEventEEEclES4_.exit

_ZNKSt8functionIFvRKN6hermes2vm16GCAnalyticsEventEEEclES4_.exit: ; preds = %entry
  %analyticsCallback_ = getelementptr inbounds i8, ptr %this, i64 72
  %_M_invoker.i = getelementptr inbounds i8, ptr %this, i64 96
  %1 = load ptr, ptr %_M_invoker.i, align 8
  tail call void %1(ptr noundef nonnull align 8 dereferenceable(16) %analyticsCallback_, ptr noundef nonnull align 8 dereferenceable(224) %event) #27
  br label %if.end

if.end:                                           ; preds = %_ZNKSt8functionIFvRKN6hermes2vm16GCAnalyticsEventEEEclES4_.exit, %entry
  %recordGcStats_ = getelementptr inbounds i8, ptr %this, i64 128
  %2 = load i8, ptr %recordGcStats_, align 8
  %3 = and i8 %2, 1
  %tobool.not = icmp eq i8 %3, 0
  br i1 %tobool.not, label %if.end4, label %if.then3

if.then3:                                         ; preds = %if.end
  %_M_finish.i = getelementptr inbounds i8, ptr %this, i64 112
  %4 = load ptr, ptr %_M_finish.i, align 8
  %_M_end_of_storage.i = getelementptr inbounds i8, ptr %this, i64 120
  %5 = load ptr, ptr %_M_end_of_storage.i, align 8
  %cmp.not.i = icmp eq ptr %4, %5
  br i1 %cmp.not.i, label %if.else.i, label %if.then.i5

if.then.i5:                                       ; preds = %if.then3
  tail call void @_ZN6hermes2vm16GCAnalyticsEventC2ERKS1_(ptr noundef nonnull align 8 dereferenceable(224) %4, ptr noundef nonnull align 8 dereferenceable(224) %event)
  %6 = load ptr, ptr %_M_finish.i, align 8
  %incdec.ptr.i = getelementptr inbounds i8, ptr %6, i64 224
  store ptr %incdec.ptr.i, ptr %_M_finish.i, align 8
  br label %if.end4

if.else.i:                                        ; preds = %if.then3
  %analyticsEvents_ = getelementptr inbounds i8, ptr %this, i64 104
  tail call void @_ZNSt6vectorIN6hermes2vm16GCAnalyticsEventESaIS2_EE17_M_realloc_insertIJRKS2_EEEvN9__gnu_cxx17__normal_iteratorIPS2_S4_EEDpOT_(ptr noundef nonnull align 8 dereferenceable(24) %analyticsEvents_, ptr %4, ptr noundef nonnull align 8 dereferenceable(224) %event)
  br label %if.end4

if.end4:                                          ; preds = %if.else.i, %if.then.i5, %if.end
  %cumStats_ = getelementptr inbounds i8, ptr %this, i64 168
  tail call void @_ZN6hermes2vm6GCBase13recordGCStatsERKNS0_16GCAnalyticsEventEPNS1_19CumulativeHeapStatsEb(ptr nonnull align 8 poison, ptr noundef nonnull align 8 dereferenceable(224) %event, ptr noundef nonnull %cumStats_, i1 noundef zeroext %onMutator)
  ret void
}